; Function Attrs: mustprogress nofree norecurse nosync nounwind willreturn memory(read, inaccessiblemem: none) uwtable
define hidden noundef i32 @_ZN5zxing9GenericGF8multiplyEii(ptr noundef nonnull readonly align 8 captures(none) dereferenceable(92) %0, i32 noundef %1, i32 noundef %2) local_unnamed_addr #9 align 2 {
  %4 = icmp eq i32 %1, 0
  %5 = icmp eq i32 %2, 0
  %or.cond = or i1 %4, %5
  br i1 %or.cond, label %25, label %6

6:                                                ; preds = %3
  %7 = getelementptr inbounds nuw i8, ptr %0, i64 16
  %8 = getelementptr inbounds nuw i8, ptr %0, i64 40
  %9 = sext i32 %1 to i64
  %10 = load ptr, ptr %8, align 8, !tbaa !23
  %11 = getelementptr inbounds nuw i32, ptr %10, i64 %9
  %12 = load i32, ptr %11, align 4, !tbaa !24
  %13 = sext i32 %2 to i64
  %14 = getelementptr inbounds nuw i32, ptr %10, i64 %13
  %15 = load i32, ptr %14, align 4, !tbaa !24
  %16 = add nsw i32 %15, %12
  %17 = getelementptr inbounds nuw i8, ptr %0, i64 80
  %18 = load i32, ptr %17, align 8, !tbaa !10
  %19 = add nsw i32 %18, -1
  %20 = srem i32 %16, %19
  %21 = sext i32 %20 to i64
  %22 = load ptr, ptr %7, align 8, !tbaa !23
  %23 = getelementptr inbounds nuw i32, ptr %22, i64 %21
  %24 = load i32, ptr %23, align 4, !tbaa !24
  br label %25

25:                                               ; preds = %3, %6
  %.0 = phi i32 [ %24, %6 ], [ 0, %3 ]
  ret i32 %.0
}